ccopy_reg
_reconstructor
p0
(cdedupe.datamodel
DataModel
p1
c__builtin__
object
p2
Ntp3
Rp4
(dp5
S'primary_fields'
p6
(lp7
g0
(cdedupe.variables.string
StringType
p8
g2
Ntp9
Rp10
(dp11
S'predicates'
p12
(lp13
g0
(cdedupe.predicates
StringPredicate
p14
g2
Ntp15
Rp16
(dp17
S'_cached_hash'
p18
I-8023803823731106737
sS'__name__'
p19
S'(wholeFieldPredicate, documento)'
p20
sS'func'
p21
cdedupe.predicates
wholeFieldPredicate
p22
sS'field'
p23
S'documento'
p24
sbag0
(g14
g2
Ntp25
Rp26
(dp27
g18
I-1942368648535055255
sg19
S'(firstTokenPredicate, documento)'
p28
sg21
cdedupe.predicates
firstTokenPredicate
p29
sg23
g24
sbag0
(g14
g2
Ntp30
Rp31
(dp32
g18
I5255203075222862372
sg19
S'(commonIntegerPredicate, documento)'
p33
sg21
cdedupe.predicates
commonIntegerPredicate
p34
sg23
g24
sbag0
(g14
g2
Ntp35
Rp36
(dp37
g18
I-8295577115156957155
sg19
S'(nearIntegersPredicate, documento)'
p38
sg21
cdedupe.predicates
nearIntegersPredicate
p39
sg23
g24
sbag0
(g14
g2
Ntp40
Rp41
(dp42
g18
I6436408488991791820
sg19
S'(firstIntegerPredicate, documento)'
p43
sg21
cdedupe.predicates
firstIntegerPredicate
p44
sg23
g24
sbag0
(g14
g2
Ntp45
Rp46
(dp47
g18
I-4797802133009030568
sg19
S'(sameThreeCharStartPredicate, documento)'
p48
sg21
cdedupe.predicates
sameThreeCharStartPredicate
p49
sg23
g24
sbag0
(g14
g2
Ntp50
Rp51
(dp52
g18
I4997659553221570215
sg19
S'(sameFiveCharStartPredicate, documento)'
p53
sg21
cdedupe.predicates
sameFiveCharStartPredicate
p54
sg23
g24
sbag0
(g14
g2
Ntp55
Rp56
(dp57
g18
I620085009857114191
sg19
S'(sameSevenCharStartPredicate, documento)'
p58
sg21
cdedupe.predicates
sameSevenCharStartPredicate
p59
sg23
g24
sbag0
(g14
g2
Ntp60
Rp61
(dp62
g18
I-7045151755293186812
sg19
S'(commonTwoTokens, documento)'
p63
sg21
cdedupe.predicates
commonTwoTokens
p64
sg23
g24
sbag0
(g14
g2
Ntp65
Rp66
(dp67
g18
I7399768012734551384
sg19
S'(commonThreeTokens, documento)'
p68
sg21
cdedupe.predicates
commonThreeTokens
p69
sg23
g24
sbag0
(g14
g2
Ntp70
Rp71
(dp72
g18
I2861146775967053441
sg19
S'(fingerprint, documento)'
p73
sg21
cdedupe.predicates
fingerprint
p74
sg23
g24
sbag0
(g14
g2
Ntp75
Rp76
(dp77
g18
I1911585927892592153
sg19
S'(oneGramFingerprint, documento)'
p78
sg21
cdedupe.predicates
oneGramFingerprint
p79
sg23
g24
sbag0
(g14
g2
Ntp80
Rp81
(dp82
g18
I-553368710505306893
sg19
S'(twoGramFingerprint, documento)'
p83
sg21
cdedupe.predicates
twoGramFingerprint
p84
sg23
g24
sbag0
(g14
g2
Ntp85
Rp86
(dp87
g18
I-4059717991208061775
sg19
S'(sortedAcronym, documento)'
p88
sg21
cdedupe.predicates
sortedAcronym
p89
sg23
g24
sbag0
(g14
g2
Ntp90
Rp91
(dp92
g18
I5999986154419373796
sg19
S'(commonFourGram, documento)'
p93
sg21
cdedupe.predicates
commonFourGram
p94
sg23
g24
sbag0
(g14
g2
Ntp95
Rp96
(dp97
g18
I-5736273354340295453
sg19
S'(commonSixGram, documento)'
p98
sg21
cdedupe.predicates
commonSixGram
p99
sg23
g24
sbag0
(g14
g2
Ntp100
Rp101
(dp102
g18
I4790679029668971113
sg19
S'(tokenFieldPredicate, documento)'
p103
sg21
cdedupe.predicates
tokenFieldPredicate
p104
sg23
g24
sbag0
(g14
g2
Ntp105
Rp106
(dp107
g18
I554110429726693831
sg19
S'(suffixArray, documento)'
p108
sg21
cdedupe.predicates
suffixArray
p109
sg23
g24
sbag0
(g14
g2
Ntp110
Rp111
(dp112
g18
I1898717812699701937
sg19
S'(doubleMetaphone, documento)'
p113
sg21
cdedupe.predicates
doubleMetaphone
p114
sg23
g24
sbag0
(g14
g2
Ntp115
Rp116
(dp117
g18
I1144030952739402646
sg19
S'(metaphoneToken, documento)'
p118
sg21
cdedupe.predicates
metaphoneToken
p119
sg23
g24
sbag0
(cdedupe.predicates
TfidfNGramCanopyPredicate
p120
g2
Ntp121
Rp122
(dp123
S'threshold'
p124
F0.2
sg19
S'(0.2, documento)'
p125
sg23
g24
sbag0
(g120
g2
Ntp126
Rp127
(dp128
g124
F0.4
sg19
S'(0.4, documento)'
p129
sg23
g24
sbag0
(g120
g2
Ntp130
Rp131
(dp132
g124
F0.6
sg19
S'(0.6, documento)'
p133
sg23
g24
sbag0
(g120
g2
Ntp134
Rp135
(dp136
g124
F0.8
sg19
S'(0.8, documento)'
p137
sg23
g24
sbag0
(cdedupe.predicates
TfidfNGramSearchPredicate
p138
g2
Ntp139
Rp140
(dp141
g124
F0.2
sg19
S'(0.2, documento)'
p142
sg23
g24
sbag0
(g138
g2
Ntp143
Rp144
(dp145
g124
F0.4
sg19
S'(0.4, documento)'
p146
sg23
g24
sbag0
(g138
g2
Ntp147
Rp148
(dp149
g124
F0.6
sg19
S'(0.6, documento)'
p150
sg23
g24
sbag0
(g138
g2
Ntp151
Rp152
(dp153
g124
F0.8
sg19
S'(0.8, documento)'
p154
sg23
g24
sbag0
(cdedupe.predicates
TfidfTextCanopyPredicate
p155
g2
Ntp156
Rp157
(dp158
g124
F0.2
sg19
S'(0.2, documento)'
p159
sg23
g24
sbag0
(g155
g2
Ntp160
Rp161
(dp162
g124
F0.4
sg19
S'(0.4, documento)'
p163
sg23
g24
sbag0
(g155
g2
Ntp164
Rp165
(dp166
g124
F0.6
sg19
S'(0.6, documento)'
p167
sg23
g24
sbag0
(g155
g2
Ntp168
Rp169
(dp170
g124
F0.8
sg19
S'(0.8, documento)'
p171
sg23
g24
sbag0
(cdedupe.predicates
TfidfTextSearchPredicate
p172
g2
Ntp173
Rp174
(dp175
g124
F0.2
sg19
S'(0.2, documento)'
p176
sg23
g24
sbag0
(g172
g2
Ntp177
Rp178
(dp179
g124
F0.4
sg19
S'(0.4, documento)'
p180
sg23
g24
sbag0
(g172
g2
Ntp181
Rp182
(dp183
g124
F0.6
sg19
S'(0.6, documento)'
p184
sg23
g24
sbag0
(g172
g2
Ntp185
Rp186
(dp187
g124
F0.8
sg19
S'(0.8, documento)'
p188
sg23
g24
sbag0
(cdedupe.predicates
LevenshteinCanopyPredicate
p189
g2
Ntp190
Rp191
(dp192
g124
I1
sg19
S'(1, documento)'
p193
sg23
g24
sbag0
(g189
g2
Ntp194
Rp195
(dp196
g124
I2
sg19
S'(2, documento)'
p197
sg23
g24
sbag0
(g189
g2
Ntp198
Rp199
(dp200
g124
I3
sg19
S'(3, documento)'
p201
sg23
g24
sbag0
(g189
g2
Ntp202
Rp203
(dp204
g124
I4
sg19
S'(4, documento)'
p205
sg23
g24
sbag0
(cdedupe.predicates
LevenshteinSearchPredicate
p206
g2
Ntp207
Rp208
(dp209
g124
I1
sg19
S'(1, documento)'
p210
sg23
g24
sbag0
(g206
g2
Ntp211
Rp212
(dp213
g124
I2
sg19
S'(2, documento)'
p214
sg23
g24
sbag0
(g206
g2
Ntp215
Rp216
(dp217
g124
I3
sg19
S'(3, documento)'
p218
sg23
g24
sbag0
(g206
g2
Ntp219
Rp220
(dp221
g124
I4
sg19
S'(4, documento)'
p222
sg23
g24
sbasg23
g24
sS'name'
p223
S'(documento: String)'
p224
sS'has_missing'
p225
I00
sS'comparator'
p226
caffinegap.affinegap
normalizedAffineGapDistance
p227
sbag0
(g8
g2
Ntp228
Rp229
(dp230
g12
(lp231
g0
(g14
g2
Ntp232
Rp233
(dp234
g18
I-3221716602810173195
sg19
S'(wholeFieldPredicate, nombre)'
p235
sg21
g22
sg23
S'nombre'
p236
sbag0
(g14
g2
Ntp237
Rp238
(dp239
g18
I-9125987655598714857
sg19
S'(firstTokenPredicate, nombre)'
p240
sg21
g29
sg23
g236
sbag0
(g14
g2
Ntp241
Rp242
(dp243
g18
I5308280250998601056
sg19
S'(commonIntegerPredicate, nombre)'
p244
sg21
g34
sg23
g236
sbag0
(g14
g2
Ntp245
Rp246
(dp247
g18
I8125861232994719099
sg19
S'(nearIntegersPredicate, nombre)'
p248
sg21
g39
sg23
g236
sbag0
(g14
g2
Ntp249
Rp250
(dp251
g18
I-7807324967574157296
sg19
S'(firstIntegerPredicate, nombre)'
p252
sg21
g44
sg23
g236
sbag0
(g14
g2
Ntp253
Rp254
(dp255
g18
I4291815154273835048
sg19
S'(sameThreeCharStartPredicate, nombre)'
p256
sg21
g49
sg23
g236
sbag0
(g14
g2
Ntp257
Rp258
(dp259
g18
I5060010832679741301
sg19
S'(sameFiveCharStartPredicate, nombre)'
p260
sg21
g54
sg23
g236
sbag0
(g14
g2
Ntp261
Rp262
(dp263
g18
I-2543754978602569723
sg19
S'(sameSevenCharStartPredicate, nombre)'
p264
sg21
g59
sg23
g236
sbag0
(g14
g2
Ntp265
Rp266
(dp267
g18
I1970998483746885100
sg19
S'(commonTwoTokens, nombre)'
p268
sg21
g64
sg23
g236
sbag0
(g14
g2
Ntp269
Rp270
(dp271
g18
I-1572443155144457644
sg19
S'(commonThreeTokens, nombre)'
p272
sg21
g69
sg23
g236
sbag0
(g14
g2
Ntp273
Rp274
(dp275
g18
I6180939267413969903
sg19
S'(fingerprint, nombre)'
p276
sg21
g74
sg23
g236
sbag0
(g14
g2
Ntp277
Rp278
(dp279
g18
I-6198028986756718357
sg19
S'(oneGramFingerprint, nombre)'
p280
sg21
g79
sg23
g236
sbag0
(g14
g2
Ntp281
Rp282
(dp283
g18
I6324761962045951009
sg19
S'(twoGramFingerprint, nombre)'
p284
sg21
g84
sg23
g236
sbag0
(g14
g2
Ntp285
Rp286
(dp287
g18
I-1072851855372256841
sg19
S'(sortedAcronym, nombre)'
p288
sg21
g89
sg23
g236
sbag0
(g14
g2
Ntp289
Rp290
(dp291
g18
I-6100158448545846080
sg19
S'(commonFourGram, nombre)'
p292
sg21
g94
sg23
g236
sbag0
(g14
g2
Ntp293
Rp294
(dp295
g18
I1344925908795231937
sg19
S'(commonSixGram, nombre)'
p296
sg21
g99
sg23
g236
sbag0
(g14
g2
Ntp297
Rp298
(dp299
g18
I-8916831777257977321
sg19
S'(tokenFieldPredicate, nombre)'
p300
sg21
g104
sg23
g236
sbag0
(g14
g2
Ntp301
Rp302
(dp303
g18
I-1798442446982120147
sg19
S'(suffixArray, nombre)'
p304
sg21
g109
sg23
g236
sbag0
(g14
g2
Ntp305
Rp306
(dp307
g18
I-8377060862372345441
sg19
S'(doubleMetaphone, nombre)'
p308
sg21
g114
sg23
g236
sbag0
(g14
g2
Ntp309
Rp310
(dp311
g18
I374978498556014358
sg19
S'(metaphoneToken, nombre)'
p312
sg21
g119
sg23
g236
sbag0
(g120
g2
Ntp313
Rp314
(dp315
g124
F0.2
sg19
S'(0.2, nombre)'
p316
sg23
g236
sbag0
(g120
g2
Ntp317
Rp318
(dp319
g124
F0.4
sg19
S'(0.4, nombre)'
p320
sg23
g236
sbag0
(g120
g2
Ntp321
Rp322
(dp323
g124
F0.6
sg19
S'(0.6, nombre)'
p324
sg23
g236
sbag0
(g120
g2
Ntp325
Rp326
(dp327
g124
F0.8
sg19
S'(0.8, nombre)'
p328
sg23
g236
sbag0
(g138
g2
Ntp329
Rp330
(dp331
g124
F0.2
sg19
S'(0.2, nombre)'
p332
sg23
g236
sbag0
(g138
g2
Ntp333
Rp334
(dp335
g124
F0.4
sg19
S'(0.4, nombre)'
p336
sg23
g236
sbag0
(g138
g2
Ntp337
Rp338
(dp339
g124
F0.6
sg19
S'(0.6, nombre)'
p340
sg23
g236
sbag0
(g138
g2
Ntp341
Rp342
(dp343
g124
F0.8
sg19
S'(0.8, nombre)'
p344
sg23
g236
sbag0
(g155
g2
Ntp345
Rp346
(dp347
g124
F0.2
sg19
S'(0.2, nombre)'
p348
sg23
g236
sbag0
(g155
g2
Ntp349
Rp350
(dp351
g124
F0.4
sg19
S'(0.4, nombre)'
p352
sg23
g236
sbag0
(g155
g2
Ntp353
Rp354
(dp355
g124
F0.6
sg19
S'(0.6, nombre)'
p356
sg23
g236
sbag0
(g155
g2
Ntp357
Rp358
(dp359
g124
F0.8
sg19
S'(0.8, nombre)'
p360
sg23
g236
sbag0
(g172
g2
Ntp361
Rp362
(dp363
g124
F0.2
sg19
S'(0.2, nombre)'
p364
sg23
g236
sbag0
(g172
g2
Ntp365
Rp366
(dp367
g124
F0.4
sg19
S'(0.4, nombre)'
p368
sg23
g236
sbag0
(g172
g2
Ntp369
Rp370
(dp371
g124
F0.6
sg19
S'(0.6, nombre)'
p372
sg23
g236
sbag0
(g172
g2
Ntp373
Rp374
(dp375
g124
F0.8
sg19
S'(0.8, nombre)'
p376
sg23
g236
sbag0
(g189
g2
Ntp377
Rp378
(dp379
g124
I1
sg19
S'(1, nombre)'
p380
sg23
g236
sbag0
(g189
g2
Ntp381
Rp382
(dp383
g124
I2
sg19
S'(2, nombre)'
p384
sg23
g236
sbag0
(g189
g2
Ntp385
Rp386
(dp387
g124
I3
sg19
S'(3, nombre)'
p388
sg23
g236
sbag0
(g189
g2
Ntp389
Rp390
(dp391
g124
I4
sg19
S'(4, nombre)'
p392
sg23
g236
sbag0
(g206
g2
Ntp393
Rp394
(dp395
g124
I1
sg19
S'(1, nombre)'
p396
sg23
g236
sbag0
(g206
g2
Ntp397
Rp398
(dp399
g124
I2
sg19
S'(2, nombre)'
p400
sg23
g236
sbag0
(g206
g2
Ntp401
Rp402
(dp403
g124
I3
sg19
S'(3, nombre)'
p404
sg23
g236
sbag0
(g206
g2
Ntp405
Rp406
(dp407
g124
I4
sg19
S'(4, nombre)'
p408
sg23
g236
sbasg23
g236
sg223
S'(nombre: String)'
p409
sg225
I00
sg226
g227
sbag0
(g8
g2
Ntp410
Rp411
(dp412
g12
(lp413
g0
(g14
g2
Ntp414
Rp415
(dp416
g18
I7659811102588351440
sg19
S'(wholeFieldPredicate, apellido)'
p417
sg21
g22
sg23
S'apellido'
p418
sbag0
(g14
g2
Ntp419
Rp420
(dp421
g18
I2015905475356982810
sg19
S'(firstTokenPredicate, apellido)'
p422
sg21
g29
sg23
g418
sbag0
(g14
g2
Ntp423
Rp424
(dp425
g18
I-3845028537469290687
sg19
S'(commonIntegerPredicate, apellido)'
p426
sg21
g34
sg23
g418
sbag0
(g14
g2
Ntp427
Rp428
(dp429
g18
I2512129835342886818
sg19
S'(nearIntegersPredicate, apellido)'
p430
sg21
g39
sg23
g418
sbag0
(g14
g2
Ntp431
Rp432
(dp433
g18
I-207456487941439371
sg19
S'(firstIntegerPredicate, apellido)'
p434
sg21
g44
sg23
g418
sbag0
(g14
g2
Ntp435
Rp436
(dp437
g18
I1697069175292383217
sg19
S'(sameThreeCharStartPredicate, apellido)'
p438
sg21
g49
sg23
g418
sbag0
(g14
g2
Ntp439
Rp440
(dp441
g18
I3927761180570092496
sg19
S'(sameFiveCharStartPredicate, apellido)'
p442
sg21
g54
sg23
g418
sbag0
(g14
g2
Ntp443
Rp444
(dp445
g18
I-1365113586599132048
sg19
S'(sameSevenCharStartPredicate, apellido)'
p446
sg21
g59
sg23
g418
sbag0
(g14
g2
Ntp447
Rp448
(dp449
g18
I-8958168331580402675
sg19
S'(commonTwoTokens, apellido)'
p450
sg21
g64
sg23
g418
sbag0
(g14
g2
Ntp451
Rp452
(dp453
g18
I3537422295986244673
sg19
S'(commonThreeTokens, apellido)'
p454
sg21
g69
sg23
g418
sbag0
(g14
g2
Ntp455
Rp456
(dp457
g18
I-261380297153649006
sg19
S'(fingerprint, apellido)'
p458
sg21
g74
sg23
g418
sbag0
(g14
g2
Ntp459
Rp460
(dp461
g18
I-6622292073905799410
sg19
S'(oneGramFingerprint, apellido)'
p462
sg21
g79
sg23
g418
sbag0
(g14
g2
Ntp463
Rp464
(dp465
g18
I667814270812018084
sg19
S'(twoGramFingerprint, apellido)'
p466
sg21
g84
sg23
g418
sbag0
(g14
g2
Ntp467
Rp468
(dp469
g18
I2497356604228238598
sg19
S'(sortedAcronym, apellido)'
p470
sg21
g89
sg23
g418
sbag0
(g14
g2
Ntp471
Rp472
(dp473
g18
I-7002699219396212111
sg19
S'(commonFourGram, apellido)'
p474
sg21
g94
sg23
g418
sbag0
(g14
g2
Ntp475
Rp476
(dp477
g18
I-7466091776609633168
sg19
S'(commonSixGram, apellido)'
p478
sg21
g99
sg23
g418
sbag0
(g14
g2
Ntp479
Rp480
(dp481
g18
I-6535529968002988006
sg19
S'(tokenFieldPredicate, apellido)'
p482
sg21
g104
sg23
g418
sbag0
(g14
g2
Ntp483
Rp484
(dp485
g18
I-4735983997203557768
sg19
S'(suffixArray, apellido)'
p486
sg21
g109
sg23
g418
sbag0
(g14
g2
Ntp487
Rp488
(dp489
g18
I8234632669752657842
sg19
S'(doubleMetaphone, apellido)'
p490
sg21
g114
sg23
g418
sbag0
(g14
g2
Ntp491
Rp492
(dp493
g18
I-5614973499349527193
sg19
S'(metaphoneToken, apellido)'
p494
sg21
g119
sg23
g418
sbag0
(g120
g2
Ntp495
Rp496
(dp497
g124
F0.2
sg19
S'(0.2, apellido)'
p498
sg23
g418
sbag0
(g120
g2
Ntp499
Rp500
(dp501
g124
F0.4
sg19
S'(0.4, apellido)'
p502
sg23
g418
sbag0
(g120
g2
Ntp503
Rp504
(dp505
g124
F0.6
sg19
S'(0.6, apellido)'
p506
sg23
g418
sbag0
(g120
g2
Ntp507
Rp508
(dp509
g124
F0.8
sg19
S'(0.8, apellido)'
p510
sg23
g418
sbag0
(g138
g2
Ntp511
Rp512
(dp513
g124
F0.2
sg19
S'(0.2, apellido)'
p514
sg23
g418
sbag0
(g138
g2
Ntp515
Rp516
(dp517
g124
F0.4
sg19
S'(0.4, apellido)'
p518
sg23
g418
sbag0
(g138
g2
Ntp519
Rp520
(dp521
g124
F0.6
sg19
S'(0.6, apellido)'
p522
sg23
g418
sbag0
(g138
g2
Ntp523
Rp524
(dp525
g124
F0.8
sg19
S'(0.8, apellido)'
p526
sg23
g418
sbag0
(g155
g2
Ntp527
Rp528
(dp529
g124
F0.2
sg19
S'(0.2, apellido)'
p530
sg23
g418
sbag0
(g155
g2
Ntp531
Rp532
(dp533
g124
F0.4
sg19
S'(0.4, apellido)'
p534
sg23
g418
sbag0
(g155
g2
Ntp535
Rp536
(dp537
g124
F0.6
sg19
S'(0.6, apellido)'
p538
sg23
g418
sbag0
(g155
g2
Ntp539
Rp540
(dp541
g124
F0.8
sg19
S'(0.8, apellido)'
p542
sg23
g418
sbag0
(g172
g2
Ntp543
Rp544
(dp545
g124
F0.2
sg19
S'(0.2, apellido)'
p546
sg23
g418
sbag0
(g172
g2
Ntp547
Rp548
(dp549
g124
F0.4
sg19
S'(0.4, apellido)'
p550
sg23
g418
sbag0
(g172
g2
Ntp551
Rp552
(dp553
g124
F0.6
sg19
S'(0.6, apellido)'
p554
sg23
g418
sbag0
(g172
g2
Ntp555
Rp556
(dp557
g124
F0.8
sg19
S'(0.8, apellido)'
p558
sg23
g418
sbag0
(g189
g2
Ntp559
Rp560
(dp561
g124
I1
sg19
S'(1, apellido)'
p562
sg23
g418
sbag0
(g189
g2
Ntp563
Rp564
(dp565
g124
I2
sg19
S'(2, apellido)'
p566
sg23
g418
sbag0
(g189
g2
Ntp567
Rp568
(dp569
g124
I3
sg19
S'(3, apellido)'
p570
sg23
g418
sbag0
(g189
g2
Ntp571
Rp572
(dp573
g124
I4
sg19
S'(4, apellido)'
p574
sg23
g418
sbag0
(g206
g2
Ntp575
Rp576
(dp577
g124
I1
sg19
S'(1, apellido)'
p578
sg23
g418
sbag0
(g206
g2
Ntp579
Rp580
(dp581
g124
I2
sg19
S'(2, apellido)'
p582
sg23
g418
sbag0
(g206
g2
Ntp583
Rp584
(dp585
g124
I3
sg19
S'(3, apellido)'
p586
sg23
g418
sbag0
(g206
g2
Ntp587
Rp588
(dp589
g124
I4
sg19
S'(4, apellido)'
p590
sg23
g418
sbasg23
g418
sg223
S'(apellido: String)'
p591
sg225
I00
sg226
g227
sbag0
(cdedupe.variables.exact
ExactType
p592
g2
Ntp593
Rp594
(dp595
g12
(lp596
g0
(cdedupe.predicates
SimplePredicate
p597
g2
Ntp598
Rp599
(dp600
g18
I8190581201593338119
sg19
S'(wholeFieldPredicate, sexo)'
p601
sg21
g22
sg23
S'sexo'
p602
sbasg23
g602
sg223
S'(sexo: Exact)'
p603
sg225
I00
sbag0
(g592
g2
Ntp604
Rp605
(dp606
g12
(lp607
g0
(g597
g2
Ntp608
Rp609
(dp610
g18
I-8831391875584031253
sg19
S'(wholeFieldPredicate, fechaNacimiento)'
p611
sg21
g22
sg23
S'fechaNacimiento'
p612
sbasg23
g612
sg223
S'(fechaNacimiento: Exact)'
p613
sg225
I00
sbasS'_variables'
p614
(lp615
g10
ag229
ag411
ag594
ag605
asS'_missing_field_indices'
p616
(lp617
sS'_derived_start'
p618
I5
sS'_interaction_indices'
p619
(lp620
sb.ccopy_reg
_reconstructor
p0
(crlr.lr
RegularizedLogisticRegression
p1
c__builtin__
object
p2
Ntp3
Rp4
(dp5
S'alpha'
p6
F0.1
sS'bias'
p7
cnumpy.core.multiarray
scalar
p8
(cnumpy
dtype
p9
(S'f8'
p10
I0
I1
tp11
Rp12
(I3
S'<'
p13
NNNI-1
I-1
I0
tp14
bS'\xc3m[\xa1\xcfg\x1d@'
p15
tp16
Rp17
sS'num_cores'
p18
I0
sS'cv'
p19
I3
sS'weights'
p20
cnumpy.core.multiarray
_reconstruct
p21
(cnumpy
ndarray
p22
(I0
tp23
S'b'
p24
tp25
Rp26
(I1
(I5
tp27
g12
I00
S'\t]\x0c\xad\xf8\x16\xfb\xbf\xbd&\xdb\x13d)\x02\xc0\xc5j\xb4\x89\x9b\xb7\xfd\xbf\x9f\x07\xa16\xae\x10\xf3? 5\xaax\x9e\x8e\x13@'
p28
tp29
bsb.(ccopy_reg
_reconstructor
p0
(cdedupe.predicates
CompoundPredicate
p1
c__builtin__
tuple
p2
(g0
(cdedupe.predicates
StringPredicate
p3
c__builtin__
object
p4
Ntp5
Rp6
(dp7
S'_cached_hash'
p8
I-3845028537469290687
sS'__name__'
p9
S'(commonIntegerPredicate, apellido)'
p10
sS'func'
p11
cdedupe.predicates
commonIntegerPredicate
p12
sS'field'
p13
S'apellido'
p14
sbg0
(g3
g4
Ntp15
Rp16
(dp17
g8
I-5614973499349527193
sg9
S'(metaphoneToken, apellido)'
p18
sg11
cdedupe.predicates
metaphoneToken
p19
sg13
g14
sbtp20
tp21
Rp22
g0
(g1
g2
(g0
(cdedupe.predicates
LevenshteinCanopyPredicate
p23
g4
Ntp24
Rp25
(dp26
S'threshold'
p27
I3
sg9
S'(3, apellido)'
p28
sg13
g14
sbg0
(g3
g4
Ntp29
Rp30
(dp31
g8
I-2543754978602569723
sg9
S'(sameSevenCharStartPredicate, nombre)'
p32
sg11
cdedupe.predicates
sameSevenCharStartPredicate
p33
sg13
S'nombre'
p34
sbtp35
tp36
Rp37
tp38
.